target datalayout = "e-m:e-p270:32:32-p271:32:32-p272:64:64-i64:64-i128:128-f80:128-n8:16:32:64-S128"
target triple = "x86_64-pc-linux-gnu"

%struct.rax = type { ptr, i64, i64, [0 x ptr] }
%struct.raxNode = type { i32, [0 x i8] }
%struct.raxStack = type { ptr, i64, i64, [32 x ptr], i32 }

; Function Attrs: inlinehint nounwind uwtable
define internal i32 @raxStackPush(ptr noundef %0, ptr noundef %1) #8 {
  %3 = alloca i32, align 4
  %4 = alloca ptr, align 8
  %5 = alloca ptr, align 8
  %6 = alloca ptr, align 8
  %7 = alloca i32, align 4
  store ptr %0, ptr %4, align 8, !tbaa !29
  store ptr %1, ptr %5, align 8, !tbaa !16
  %8 = load ptr, ptr %4, align 8, !tbaa !29
  %9 = getelementptr inbounds nuw %struct.raxStack, ptr %8, i32 0, i32 1
  %10 = load i64, ptr %9, align 8, !tbaa !40
  %11 = load ptr, ptr %4, align 8, !tbaa !29
  %12 = getelementptr inbounds nuw %struct.raxStack, ptr %11, i32 0, i32 2
  %13 = load i64, ptr %12, align 8, !tbaa !41
  %14 = icmp eq i64 %10, %13
  br i1 %14, label %15, label %84

15:                                               ; preds = %2
  %16 = load ptr, ptr %4, align 8, !tbaa !29
  %17 = getelementptr inbounds nuw %struct.raxStack, ptr %16, i32 0, i32 0
  %18 = load ptr, ptr %17, align 8, !tbaa !39
  %19 = load ptr, ptr %4, align 8, !tbaa !29
  %20 = getelementptr inbounds nuw %struct.raxStack, ptr %19, i32 0, i32 3
  %21 = getelementptr inbounds [32 x ptr], ptr %20, i64 0, i64 0
  %22 = icmp eq ptr %18, %21
  br i1 %22, label %23, label %56

23:                                               ; preds = %15
  %24 = load ptr, ptr %4, align 8, !tbaa !29
  %25 = getelementptr inbounds nuw %struct.raxStack, ptr %24, i32 0, i32 2
  %26 = load i64, ptr %25, align 8, !tbaa !41
  %27 = mul i64 8, %26
  %28 = mul i64 %27, 2
  %29 = call noalias ptr @zmalloc(i64 noundef %28) #14
  %30 = load ptr, ptr %4, align 8, !tbaa !29
  %31 = getelementptr inbounds nuw %struct.raxStack, ptr %30, i32 0, i32 0
  store ptr %29, ptr %31, align 8, !tbaa !39
  %32 = load ptr, ptr %4, align 8, !tbaa !29
  %33 = getelementptr inbounds nuw %struct.raxStack, ptr %32, i32 0, i32 0
  %34 = load ptr, ptr %33, align 8, !tbaa !39
  %35 = icmp eq ptr %34, null
  br i1 %35, label %36, label %45

36:                                               ; preds = %23
  %37 = load ptr, ptr %4, align 8, !tbaa !29
  %38 = getelementptr inbounds nuw %struct.raxStack, ptr %37, i32 0, i32 3
  %39 = getelementptr inbounds [32 x ptr], ptr %38, i64 0, i64 0
  %40 = load ptr, ptr %4, align 8, !tbaa !29
  %41 = getelementptr inbounds nuw %struct.raxStack, ptr %40, i32 0, i32 0
  store ptr %39, ptr %41, align 8, !tbaa !39
  %42 = load ptr, ptr %4, align 8, !tbaa !29
  %43 = getelementptr inbounds nuw %struct.raxStack, ptr %42, i32 0, i32 4
  store i32 1, ptr %43, align 8, !tbaa !35
  %44 = call ptr @__errno_location() #17
  store i32 12, ptr %44, align 4, !tbaa !5
  store i32 0, ptr %3, align 4
  br label %97

45:                                               ; preds = %23
  %46 = load ptr, ptr %4, align 8, !tbaa !29
  %47 = getelementptr inbounds nuw %struct.raxStack, ptr %46, i32 0, i32 0
  %48 = load ptr, ptr %47, align 8, !tbaa !39
  %49 = load ptr, ptr %4, align 8, !tbaa !29
  %50 = getelementptr inbounds nuw %struct.raxStack, ptr %49, i32 0, i32 3
  %51 = getelementptr inbounds [32 x ptr], ptr %50, i64 0, i64 0
  %52 = load ptr, ptr %4, align 8, !tbaa !29
  %53 = getelementptr inbounds nuw %struct.raxStack, ptr %52, i32 0, i32 2
  %54 = load i64, ptr %53, align 8, !tbaa !41
  %55 = mul i64 8, %54
  call void @llvm.memcpy.p0.p0.i64(ptr align 8 %48, ptr align 8 %51, i64 %55, i1 false)
  br label %79

56:                                               ; preds = %15
  call void @llvm.lifetime.start.p0(i64 8, ptr %6) #13
  %57 = load ptr, ptr %4, align 8, !tbaa !29
  %58 = getelementptr inbounds nuw %struct.raxStack, ptr %57, i32 0, i32 0
  %59 = load ptr, ptr %58, align 8, !tbaa !39
  %60 = load ptr, ptr %4, align 8, !tbaa !29
  %61 = getelementptr inbounds nuw %struct.raxStack, ptr %60, i32 0, i32 2
  %62 = load i64, ptr %61, align 8, !tbaa !41
  %63 = mul i64 8, %62
  %64 = mul i64 %63, 2
  %65 = call ptr @zrealloc(ptr noundef %59, i64 noundef %64) #15
  store ptr %65, ptr %6, align 8, !tbaa !16
  %66 = load ptr, ptr %6, align 8, !tbaa !16
  %67 = icmp eq ptr %66, null
  br i1 %67, label %68, label %72

68:                                               ; preds = %56
  %69 = load ptr, ptr %4, align 8, !tbaa !29
  %70 = getelementptr inbounds nuw %struct.raxStack, ptr %69, i32 0, i32 4
  store i32 1, ptr %70, align 8, !tbaa !35
  %71 = call ptr @__errno_location() #17
  store i32 12, ptr %71, align 4, !tbaa !5
  store i32 0, ptr %3, align 4
  store i32 1, ptr %7, align 4
  br label %76

72:                                               ; preds = %56
  %73 = load ptr, ptr %6, align 8, !tbaa !16
  %74 = load ptr, ptr %4, align 8, !tbaa !29
  %75 = getelementptr inbounds nuw %struct.raxStack, ptr %74, i32 0, i32 0
  store ptr %73, ptr %75, align 8, !tbaa !39
  store i32 0, ptr %7, align 4
  br label %76

76:                                               ; preds = %72, %68
  call void @llvm.lifetime.end.p0(i64 8, ptr %6) #13
  %77 = load i32, ptr %7, align 4
  switch i32 %77, label %99 [
    i32 0, label %78
    i32 1, label %97
  ]

78:                                               ; preds = %76
  br label %79

79:                                               ; preds = %78, %45
  %80 = load ptr, ptr %4, align 8, !tbaa !29
  %81 = getelementptr inbounds nuw %struct.raxStack, ptr %80, i32 0, i32 2
  %82 = load i64, ptr %81, align 8, !tbaa !41
  %83 = mul i64 %82, 2
  store i64 %83, ptr %81, align 8, !tbaa !41
  br label %84

84:                                               ; preds = %79, %2
  %85 = load ptr, ptr %5, align 8, !tbaa !16
  %86 = load ptr, ptr %4, align 8, !tbaa !29
  %87 = getelementptr inbounds nuw %struct.raxStack, ptr %86, i32 0, i32 0
  %88 = load ptr, ptr %87, align 8, !tbaa !39
  %89 = load ptr, ptr %4, align 8, !tbaa !29
  %90 = getelementptr inbounds nuw %struct.raxStack, ptr %89, i32 0, i32 1
  %91 = load i64, ptr %90, align 8, !tbaa !40
  %92 = getelementptr inbounds nuw ptr, ptr %88, i64 %91
  store ptr %85, ptr %92, align 8, !tbaa !16
  %93 = load ptr, ptr %4, align 8, !tbaa !29
  %94 = getelementptr inbounds nuw %struct.raxStack, ptr %93, i32 0, i32 1
  %95 = load i64, ptr %94, align 8, !tbaa !40
  %96 = add i64 %95, 1
  store i64 %96, ptr %94, align 8, !tbaa !40
  store i32 1, ptr %3, align 4
  br label %97

97:                                               ; preds = %84, %76, %36
  %98 = load i32, ptr %3, align 4
  ret i32 %98

99:                                               ; preds = %76
  unreachable
}

; Function Attrs: inlinehint nounwind uwtable
define internal i64 @raxLowWalk(ptr noundef %0, ptr noundef %1, i64 noundef %2, ptr noundef %3, ptr noundef %4, ptr noundef %5, ptr noundef %6) #8 {
  %8 = alloca ptr, align 8
  %9 = alloca ptr, align 8
  %10 = alloca i64, align 8
  %11 = alloca ptr, align 8
  %12 = alloca ptr, align 8
  %13 = alloca ptr, align 8
  %14 = alloca ptr, align 8
  %15 = alloca ptr, align 8
  %16 = alloca ptr, align 8
  %17 = alloca i64, align 8
  %18 = alloca i64, align 8
  %19 = alloca ptr, align 8
  %20 = alloca i32, align 4
  %21 = alloca ptr, align 8
  store ptr %0, ptr %8, align 8, !tbaa !14
  store ptr %1, ptr %9, align 8, !tbaa !24
  store i64 %2, ptr %10, align 8, !tbaa !9
  store ptr %3, ptr %11, align 8, !tbaa !18
  store ptr %4, ptr %12, align 8, !tbaa !20
  store ptr %5, ptr %13, align 8, !tbaa !27
  store ptr %6, ptr %14, align 8, !tbaa !29
  call void @llvm.lifetime.start.p0(i64 8, ptr %15) #13
  %22 = load ptr, ptr %8, align 8, !tbaa !14
  %23 = getelementptr inbounds nuw %struct.rax, ptr %22, i32 0, i32 0
  %24 = load ptr, ptr %23, align 8, !tbaa !11
  store ptr %24, ptr %15, align 8, !tbaa !11
  call void @llvm.lifetime.start.p0(i64 8, ptr %16) #13
  %25 = load ptr, ptr %8, align 8, !tbaa !14
  %26 = getelementptr inbounds nuw %struct.rax, ptr %25, i32 0, i32 0
  store ptr %26, ptr %16, align 8, !tbaa !18
  call void @llvm.lifetime.start.p0(i64 8, ptr %17) #13
  store i64 0, ptr %17, align 8, !tbaa !9
  call void @llvm.lifetime.start.p0(i64 8, ptr %18) #13
  store i64 0, ptr %18, align 8, !tbaa !9
  br label %27

27:                                               ; preds = %165, %7
  %28 = load ptr, ptr %15, align 8, !tbaa !11
  %29 = load i32, ptr %28, align 4
  %30 = lshr i32 %29, 3
  %31 = icmp ne i32 %30, 0
  br i1 %31, label %32, label %36

32:                                               ; preds = %27
  %33 = load i64, ptr %17, align 8, !tbaa !9
  %34 = load i64, ptr %10, align 8, !tbaa !9
  %35 = icmp ult i64 %33, %34
  br label %36

36:                                               ; preds = %32, %27
  %37 = phi i1 [ false, %27 ], [ %35, %32 ]
  br i1 %37, label %38, label %166

38:                                               ; preds = %36
  call void @llvm.lifetime.start.p0(i64 8, ptr %19) #13
  %39 = load ptr, ptr %15, align 8, !tbaa !11
  %40 = getelementptr inbounds nuw %struct.raxNode, ptr %39, i32 0, i32 1
  %41 = getelementptr inbounds [0 x i8], ptr %40, i64 0, i64 0
  store ptr %41, ptr %19, align 8, !tbaa !24
  %42 = load ptr, ptr %15, align 8, !tbaa !11
  %43 = load i32, ptr %42, align 4
  %44 = lshr i32 %43, 2
  %45 = and i32 %44, 1
  %46 = icmp ne i32 %45, 0
  br i1 %46, label %47, label %89

47:                                               ; preds = %38
  store i64 0, ptr %18, align 8, !tbaa !9
  br label %48

48:                                               ; preds = %75, %47
  %49 = load i64, ptr %18, align 8, !tbaa !9
  %50 = load ptr, ptr %15, align 8, !tbaa !11
  %51 = load i32, ptr %50, align 4
  %52 = lshr i32 %51, 3
  %53 = zext i32 %52 to i64
  %54 = icmp ult i64 %49, %53
  br i1 %54, label %55, label %59

55:                                               ; preds = %48
  %56 = load i64, ptr %17, align 8, !tbaa !9
  %57 = load i64, ptr %10, align 8, !tbaa !9
  %58 = icmp ult i64 %56, %57
  br label %59

59:                                               ; preds = %55, %48
  %60 = phi i1 [ false, %48 ], [ %58, %55 ]
  br i1 %60, label %61, label %80

61:                                               ; preds = %59
  %62 = load ptr, ptr %19, align 8, !tbaa !24
  %63 = load i64, ptr %18, align 8, !tbaa !9
  %64 = getelementptr inbounds nuw i8, ptr %62, i64 %63
  %65 = load i8, ptr %64, align 1, !tbaa !17
  %66 = zext i8 %65 to i32
  %67 = load ptr, ptr %9, align 8, !tbaa !24
  %68 = load i64, ptr %17, align 8, !tbaa !9
  %69 = getelementptr inbounds nuw i8, ptr %67, i64 %68
  %70 = load i8, ptr %69, align 1, !tbaa !17
  %71 = zext i8 %70 to i32
  %72 = icmp ne i32 %66, %71
  br i1 %72, label %73, label %74

73:                                               ; preds = %61
  br label %80

74:                                               ; preds = %61
  br label %75

75:                                               ; preds = %74
  %76 = load i64, ptr %18, align 8, !tbaa !9
  %77 = add i64 %76, 1
  store i64 %77, ptr %18, align 8, !tbaa !9
  %78 = load i64, ptr %17, align 8, !tbaa !9
  %79 = add i64 %78, 1
  store i64 %79, ptr %17, align 8, !tbaa !9
  br label %48, !llvm.loop !31

80:                                               ; preds = %73, %59
  %81 = load i64, ptr %18, align 8, !tbaa !9
  %82 = load ptr, ptr %15, align 8, !tbaa !11
  %83 = load i32, ptr %82, align 4
  %84 = lshr i32 %83, 3
  %85 = zext i32 %84 to i64
  %86 = icmp ne i64 %81, %85
  br i1 %86, label %87, label %88

87:                                               ; preds = %80
  store i32 3, ptr %20, align 4
  br label %163

88:                                               ; preds = %80
  br label %125

89:                                               ; preds = %38
  store i64 0, ptr %18, align 8, !tbaa !9
  br label %90

90:                                               ; preds = %111, %89
  %91 = load i64, ptr %18, align 8, !tbaa !9
  %92 = load ptr, ptr %15, align 8, !tbaa !11
  %93 = load i32, ptr %92, align 4
  %94 = lshr i32 %93, 3
  %95 = zext i32 %94 to i64
  %96 = icmp ult i64 %91, %95
  br i1 %96, label %97, label %114

97:                                               ; preds = %90
  %98 = load ptr, ptr %19, align 8, !tbaa !24
  %99 = load i64, ptr %18, align 8, !tbaa !9
  %100 = getelementptr inbounds nuw i8, ptr %98, i64 %99
  %101 = load i8, ptr %100, align 1, !tbaa !17
  %102 = zext i8 %101 to i32
  %103 = load ptr, ptr %9, align 8, !tbaa !24
  %104 = load i64, ptr %17, align 8, !tbaa !9
  %105 = getelementptr inbounds nuw i8, ptr %103, i64 %104
  %106 = load i8, ptr %105, align 1, !tbaa !17
  %107 = zext i8 %106 to i32
  %108 = icmp eq i32 %102, %107
  br i1 %108, label %109, label %110

109:                                              ; preds = %97
  br label %114

110:                                              ; preds = %97
  br label %111

111:                                              ; preds = %110
  %112 = load i64, ptr %18, align 8, !tbaa !9
  %113 = add i64 %112, 1
  store i64 %113, ptr %18, align 8, !tbaa !9
  br label %90, !llvm.loop !32

114:                                              ; preds = %109, %90
  %115 = load i64, ptr %18, align 8, !tbaa !9
  %116 = load ptr, ptr %15, align 8, !tbaa !11
  %117 = load i32, ptr %116, align 4
  %118 = lshr i32 %117, 3
  %119 = zext i32 %118 to i64
  %120 = icmp eq i64 %115, %119
  br i1 %120, label %121, label %122

121:                                              ; preds = %114
  store i32 3, ptr %20, align 4
  br label %163

122:                                              ; preds = %114
  %123 = load i64, ptr %17, align 8, !tbaa !9
  %124 = add i64 %123, 1
  store i64 %124, ptr %17, align 8, !tbaa !9
  br label %125

125:                                              ; preds = %122, %88
  %126 = load ptr, ptr %14, align 8, !tbaa !29
  %127 = icmp ne ptr %126, null
  br i1 %127, label %128, label %132

128:                                              ; preds = %125
  %129 = load ptr, ptr %14, align 8, !tbaa !29
  %130 = load ptr, ptr %15, align 8, !tbaa !11
  %131 = call i32 @raxStackPush(ptr noundef %129, ptr noundef %130)
  br label %132

132:                                              ; preds = %128, %125
  call void @llvm.lifetime.start.p0(i64 8, ptr %21) #13
  %133 = load ptr, ptr %15, align 8, !tbaa !11
  %134 = getelementptr inbounds nuw %struct.raxNode, ptr %133, i32 0, i32 1
  %135 = getelementptr inbounds [0 x i8], ptr %134, i64 0, i64 0
  %136 = load ptr, ptr %15, align 8, !tbaa !11
  %137 = load i32, ptr %136, align 4
  %138 = lshr i32 %137, 3
  %139 = sext i32 %138 to i64
  %140 = getelementptr inbounds i8, ptr %135, i64 %139
  %141 = load ptr, ptr %15, align 8, !tbaa !11
  %142 = load i32, ptr %141, align 4
  %143 = lshr i32 %142, 3
  %144 = add nsw i32 %143, 4
  %145 = sext i32 %144 to i64
  %146 = urem i64 %145, 8
  %147 = sub i64 8, %146
  %148 = and i64 %147, 7
  %149 = getelementptr inbounds nuw i8, ptr %140, i64 %148
  store ptr %149, ptr %21, align 8, !tbaa !18
  %150 = load ptr, ptr %15, align 8, !tbaa !11
  %151 = load i32, ptr %150, align 4
  %152 = lshr i32 %151, 2
  %153 = and i32 %152, 1
  %154 = icmp ne i32 %153, 0
  br i1 %154, label %155, label %156

155:                                              ; preds = %132
  store i64 0, ptr %18, align 8, !tbaa !9
  br label %156

156:                                              ; preds = %155, %132
  %157 = load ptr, ptr %21, align 8, !tbaa !18
  %158 = load i64, ptr %18, align 8, !tbaa !9
  %159 = getelementptr inbounds nuw ptr, ptr %157, i64 %158
  call void @llvm.memcpy.p0.p0.i64(ptr align 8 %15, ptr align 8 %159, i64 8, i1 false)
  %160 = load ptr, ptr %21, align 8, !tbaa !18
  %161 = load i64, ptr %18, align 8, !tbaa !9
  %162 = getelementptr inbounds nuw ptr, ptr %160, i64 %161
  store ptr %162, ptr %16, align 8, !tbaa !18
  store i64 0, ptr %18, align 8, !tbaa !9
  call void @llvm.lifetime.end.p0(i64 8, ptr %21) #13
  store i32 0, ptr %20, align 4
  br label %163

163:                                              ; preds = %156, %121, %87
  call void @llvm.lifetime.end.p0(i64 8, ptr %19) #13
  %164 = load i32, ptr %20, align 4
  switch i32 %164, label %193 [
    i32 0, label %165
    i32 3, label %166
  ]

165:                                              ; preds = %163
  br label %27, !llvm.loop !33

166:                                              ; preds = %163, %36
  %167 = load ptr, ptr %11, align 8, !tbaa !18
  %168 = icmp ne ptr %167, null
  br i1 %168, label %169, label %172

169:                                              ; preds = %166
  %170 = load ptr, ptr %15, align 8, !tbaa !11
  %171 = load ptr, ptr %11, align 8, !tbaa !18
  store ptr %170, ptr %171, align 8, !tbaa !11
  br label %172

172:                                              ; preds = %169, %166
  %173 = load ptr, ptr %12, align 8, !tbaa !20
  %174 = icmp ne ptr %173, null
  br i1 %174, label %175, label %178

175:                                              ; preds = %172
  %176 = load ptr, ptr %16, align 8, !tbaa !18
  %177 = load ptr, ptr %12, align 8, !tbaa !20
  store ptr %176, ptr %177, align 8, !tbaa !18
  br label %178

178:                                              ; preds = %175, %172
  %179 = load ptr, ptr %13, align 8, !tbaa !27
  %180 = icmp ne ptr %179, null
  br i1 %180, label %181, label %191

181:                                              ; preds = %178
  %182 = load ptr, ptr %15, align 8, !tbaa !11
  %183 = load i32, ptr %182, align 4
  %184 = lshr i32 %183, 2
  %185 = and i32 %184, 1
  %186 = icmp ne i32 %185, 0
  br i1 %186, label %187, label %191

187:                                              ; preds = %181
  %188 = load i64, ptr %18, align 8, !tbaa !9
  %189 = trunc i64 %188 to i32
  %190 = load ptr, ptr %13, align 8, !tbaa !27
  store i32 %189, ptr %190, align 4, !tbaa !5
  br label %191

191:                                              ; preds = %187, %181, %178
  %192 = load i64, ptr %17, align 8, !tbaa !9
  store i32 1, ptr %20, align 4
  call void @llvm.lifetime.end.p0(i64 8, ptr %18) #13
  call void @llvm.lifetime.end.p0(i64 8, ptr %17) #13
  call void @llvm.lifetime.end.p0(i64 8, ptr %16) #13
  call void @llvm.lifetime.end.p0(i64 8, ptr %15) #13
  ret i64 %192

193:                                              ; preds = %163
  unreachable
}