; Function Attrs: inlinehint nounwind uwtable
define internal fastcc i64 @raxLowWalk(ptr noundef %0, ptr noundef readonly captures(none) %1, i64 noundef %2, ptr noundef writeonly captures(address_is_null) %3, ptr noundef writeonly captures(address_is_null) %4, ptr noundef nonnull writeonly captures(none) %5, ptr noundef %6) unnamed_addr #10 {
  %.099 = load ptr, ptr %0, align 8
  %8 = load i32, ptr %.099, align 4
  %9 = icmp ugt i32 %8, 7
  %10 = icmp ne i64 %2, 0
  %11 = and i1 %9, %10
  br i1 %11, label %.lr.ph104, label %.thread

.lr.ph104:                                        ; preds = %7
  %.not70 = icmp eq ptr %6, null
  %12 = getelementptr inbounds nuw i8, ptr %6, i64 8
  %13 = getelementptr inbounds nuw i8, ptr %6, i64 16
  %14 = getelementptr inbounds nuw i8, ptr %6, i64 24
  %15 = getelementptr inbounds nuw i8, ptr %6, i64 280
  br label %16

16:                                               ; preds = %.lr.ph104, %74
  %17 = phi i32 [ %8, %.lr.ph104 ], [ %85, %74 ]
  %.0102 = phi ptr [ %.099, %.lr.ph104 ], [ %.0, %74 ]
  %.052101 = phi ptr [ %0, %.lr.ph104 ], [ %84, %74 ]
  %.058100 = phi i64 [ 0, %.lr.ph104 ], [ %.462, %74 ]
  %18 = getelementptr inbounds nuw i8, ptr %.0102, i64 4
  %19 = and i32 %17, 4
  %.not = icmp eq i32 %19, 0
  %20 = lshr i32 %17, 3
  %21 = zext nneg i32 %20 to i64
  br i1 %.not, label %.lr.ph92, label %.preheader81

.preheader81:                                     ; preds = %16
  %22 = icmp ult i64 %.058100, %2
  br i1 %22, label %.lr.ph, label %._crit_edge

.lr.ph92:                                         ; preds = %16
  %23 = getelementptr inbounds nuw i8, ptr %1, i64 %.058100
  %24 = load i8, ptr %23, align 1, !tbaa !15
  br label %35

.lr.ph:                                           ; preds = %.preheader81, %29
  %.25784 = phi i64 [ %30, %29 ], [ 0, %.preheader81 ]
  %.26083 = phi i64 [ %31, %29 ], [ %.058100, %.preheader81 ]
  %25 = getelementptr inbounds nuw i8, ptr %18, i64 %.25784
  %26 = load i8, ptr %25, align 1, !tbaa !15
  %27 = getelementptr inbounds nuw i8, ptr %1, i64 %.26083
  %28 = load i8, ptr %27, align 1, !tbaa !15
  %.not68 = icmp eq i8 %26, %28
  br i1 %.not68, label %29, label %._crit_edge

29:                                               ; preds = %.lr.ph
  %30 = add nuw nsw i64 %.25784, 1
  %31 = add nuw i64 %.26083, 1
  %32 = icmp samesign ult i64 %30, %21
  %33 = icmp ult i64 %31, %2
  %34 = and i1 %32, %33
  br i1 %34, label %.lr.ph, label %._crit_edge, !llvm.loop !20

._crit_edge:                                      ; preds = %29, %.lr.ph, %.preheader81
  %.260.lcssa = phi i64 [ %.058100, %.preheader81 ], [ %.26083, %.lr.ph ], [ %31, %29 ]
  %.257.lcssa = phi i64 [ 0, %.preheader81 ], [ %.25784, %.lr.ph ], [ %30, %29 ]
  %.not69 = icmp eq i64 %.257.lcssa, %21
  br i1 %.not69, label %44, label %.thread.loopexit.loopexit126

35:                                               ; preds = %.lr.ph92, %39
  %.591 = phi i64 [ 0, %.lr.ph92 ], [ %40, %39 ]
  %36 = getelementptr inbounds nuw i8, ptr %18, i64 %.591
  %37 = load i8, ptr %36, align 1, !tbaa !15
  %38 = icmp eq i8 %37, %24
  br i1 %38, label %._crit_edge93, label %39

39:                                               ; preds = %35
  %40 = add nuw nsw i64 %.591, 1
  %exitcond.not = icmp eq i64 %40, %21
  br i1 %exitcond.not, label %.thread, label %35, !llvm.loop !21

._crit_edge93:                                    ; preds = %35
  %41 = icmp eq i64 %.591, %21
  br i1 %41, label %.thread.loopexit.loopexit126, label %42

42:                                               ; preds = %._crit_edge93
  %43 = add i64 %.058100, 1
  br label %44

44:                                               ; preds = %._crit_edge, %42
  %.462 = phi i64 [ %.260.lcssa, %._crit_edge ], [ %43, %42 ]
  %.4 = phi i64 [ %21, %._crit_edge ], [ %.591, %42 ]
  br i1 %.not70, label %74, label %45

45:                                               ; preds = %44
  %46 = load i64, ptr %12, align 8, !tbaa !24
  %47 = load i64, ptr %13, align 8, !tbaa !26
  %48 = icmp eq i64 %46, %47
  %.pre32.i = load ptr, ptr %6, align 8, !tbaa !27
  br i1 %48, label %49, label %69

49:                                               ; preds = %45
  %50 = icmp eq ptr %.pre32.i, %14
  %51 = shl i64 %46, 4
  br i1 %50, label %52, label %60

52:                                               ; preds = %49
  %53 = tail call noalias ptr @zmalloc(i64 noundef %51) #25
  store ptr %53, ptr %6, align 8, !tbaa !27
  %54 = icmp eq ptr %53, null
  br i1 %54, label %55, label %57

55:                                               ; preds = %52
  store ptr %14, ptr %6, align 8, !tbaa !27
  store i32 1, ptr %15, align 8, !tbaa !28
  %56 = tail call ptr @__errno_location() #29
  store i32 12, ptr %56, align 4, !tbaa !5
  br label %74

57:                                               ; preds = %52
  %58 = load i64, ptr %13, align 8, !tbaa !26
  %59 = shl i64 %58, 3
  tail call void @llvm.memcpy.p0.p0.i64(ptr nonnull align 8 %53, ptr nonnull align 8 %14, i64 %59, i1 false)
  br label %65

60:                                               ; preds = %49
  %61 = tail call ptr @zrealloc(ptr noundef %.pre32.i, i64 noundef %51) #27
  %62 = icmp eq ptr %61, null
  br i1 %62, label %63, label %.thread.i

.thread.i:                                        ; preds = %60
  store ptr %61, ptr %6, align 8, !tbaa !27
  %.pre.i = load i64, ptr %13, align 8, !tbaa !26
  br label %65

63:                                               ; preds = %60
  store i32 1, ptr %15, align 8, !tbaa !28
  %64 = tail call ptr @__errno_location() #29
  store i32 12, ptr %64, align 4, !tbaa !5
  br label %74

65:                                               ; preds = %.thread.i, %57
  %66 = phi ptr [ %61, %.thread.i ], [ %53, %57 ]
  %67 = phi i64 [ %.pre.i, %.thread.i ], [ %58, %57 ]
  %68 = shl i64 %67, 1
  store i64 %68, ptr %13, align 8, !tbaa !26
  %.pre33.i = load i64, ptr %12, align 8, !tbaa !24
  br label %69

69:                                               ; preds = %65, %45
  %70 = phi i64 [ %.pre33.i, %65 ], [ %46, %45 ]
  %71 = phi ptr [ %66, %65 ], [ %.pre32.i, %45 ]
  %72 = getelementptr inbounds nuw ptr, ptr %71, i64 %70
  store ptr %.0102, ptr %72, align 8, !tbaa !22
  %73 = add i64 %70, 1
  store i64 %73, ptr %12, align 8, !tbaa !24
  br label %74

74:                                               ; preds = %44, %55, %63, %69
  %75 = load i32, ptr %.0102, align 4
  %76 = lshr i32 %75, 3
  %77 = zext nneg i32 %76 to i64
  %78 = getelementptr inbounds nuw i8, ptr %18, i64 %77
  %79 = xor i32 %76, 3
  %.neg = add nuw nsw i32 %79, 1
  %80 = and i32 %.neg, 7
  %81 = zext nneg i32 %80 to i64
  %82 = getelementptr inbounds nuw i8, ptr %78, i64 %81
  %83 = and i32 %75, 4
  %.not71 = icmp eq i32 %83, 0
  %spec.select = select i1 %.not71, i64 %.4, i64 0
  %84 = getelementptr inbounds nuw ptr, ptr %82, i64 %spec.select
  %.0 = load ptr, ptr %84, align 8
  %85 = load i32, ptr %.0, align 4
  %86 = icmp ugt i32 %85, 7
  %87 = icmp ult i64 %.462, %2
  %88 = select i1 %86, i1 %87, i1 false
  br i1 %88, label %16, label %.thread.loopexit.loopexit126

.thread.loopexit.loopexit126:                     ; preds = %74, %._crit_edge, %._crit_edge93
  %.052.lcssa.ph.ph = phi ptr [ %84, %74 ], [ %.052101, %._crit_edge ], [ %.052101, %._crit_edge93 ]
  %.0.lcssa.ph.ph = phi ptr [ %.0, %74 ], [ %.0102, %._crit_edge ], [ %.0102, %._crit_edge93 ]
  %.159.ph.ph = phi i64 [ %.462, %74 ], [ %.260.lcssa, %._crit_edge ], [ %.058100, %._crit_edge93 ]
  %.156.ph.ph = phi i64 [ 0, %74 ], [ %.257.lcssa, %._crit_edge ], [ %21, %._crit_edge93 ]
  %89 = trunc i64 %.156.ph.ph to i32
  br label %.thread

.thread:                                          ; preds = %39, %.thread.loopexit.loopexit126, %7
  %.052.lcssa = phi ptr [ %0, %7 ], [ %.052.lcssa.ph.ph, %.thread.loopexit.loopexit126 ], [ %.052101, %39 ]
  %.0.lcssa = phi ptr [ %.099, %7 ], [ %.0.lcssa.ph.ph, %.thread.loopexit.loopexit126 ], [ %.0102, %39 ]
  %.159 = phi i64 [ 0, %7 ], [ %.159.ph.ph, %.thread.loopexit.loopexit126 ], [ %.058100, %39 ]
  %.156 = phi i32 [ 0, %7 ], [ %89, %.thread.loopexit.loopexit126 ], [ %20, %39 ]
  %.not72 = icmp eq ptr %3, null
  br i1 %.not72, label %91, label %90

90:                                               ; preds = %.thread
  store ptr %.0.lcssa, ptr %3, align 8, !tbaa !11
  br label %91

91:                                               ; preds = %90, %.thread
  %.not73 = icmp eq ptr %4, null
  br i1 %.not73, label %93, label %92

92:                                               ; preds = %91
  store ptr %.052.lcssa, ptr %4, align 8, !tbaa !18
  br label %93

93:                                               ; preds = %91, %92
  %94 = load i32, ptr %.0.lcssa, align 4
  %95 = and i32 %94, 4
  %.not74 = icmp eq i32 %95, 0
  br i1 %.not74, label %97, label %96

96:                                               ; preds = %93
  store i32 %.156, ptr %5, align 4, !tbaa !5
  br label %97

97:                                               ; preds = %96, %93
  ret i64 %.159
}